target datalayout = "e-m:e-p270:32:32-p271:32:32-p272:64:64-i64:64-i128:128-f80:128-n8:16:32:64-S128"
target triple = "x86_64-pc-linux-gnu"

%struct.pmix_tma = type { ptr, ptr, ptr, ptr, ptr, ptr, ptr, ptr }
%struct.pmix_regattr_t = type { ptr, [512 x i8], i16, ptr }

; Function Attrs: inlinehint nounwind uwtable
define internal void @pmix_bfrops_base_tma_argv_free(ptr noundef %0, ptr noundef %1) #3 {
  %3 = alloca ptr, align 8
  %4 = alloca ptr, align 8
  %5 = alloca ptr, align 8
  store ptr %0, ptr %3, align 8, !tbaa !139
  store ptr %1, ptr %4, align 8, !tbaa !64
  %6 = load ptr, ptr %3, align 8, !tbaa !139
  %7 = icmp ne ptr null, %6
  br i1 %7, label %8, label %25

8:                                                ; preds = %2
  call void @llvm.lifetime.start.p0(i64 8, ptr %5) #10
  %9 = load ptr, ptr %3, align 8, !tbaa !139
  store ptr %9, ptr %5, align 8, !tbaa !139
  br label %10

10:                                               ; preds = %19, %8
  %11 = load ptr, ptr %5, align 8, !tbaa !139
  %12 = load ptr, ptr %11, align 8, !tbaa !142
  %13 = icmp ne ptr null, %12
  br i1 %13, label %15, label %14

14:                                               ; preds = %10
  call void @llvm.lifetime.end.p0(i64 8, ptr %5) #10
  br label %22

15:                                               ; preds = %10
  %16 = load ptr, ptr %4, align 8, !tbaa !64
  %17 = load ptr, ptr %5, align 8, !tbaa !139
  %18 = load ptr, ptr %17, align 8, !tbaa !142
  call void @pmix_tma_free(ptr noundef %16, ptr noundef %18)
  br label %19

19:                                               ; preds = %15
  %20 = load ptr, ptr %5, align 8, !tbaa !139
  %21 = getelementptr inbounds nuw ptr, ptr %20, i32 1
  store ptr %21, ptr %5, align 8, !tbaa !139
  br label %10, !llvm.loop !180

22:                                               ; preds = %14
  %23 = load ptr, ptr %4, align 8, !tbaa !64
  %24 = load ptr, ptr %3, align 8, !tbaa !139
  call void @pmix_tma_free(ptr noundef %23, ptr noundef %24)
  br label %25

25:                                               ; preds = %22, %2
  ret void
}

; Function Attrs: inlinehint nounwind uwtable
define internal void @pmix_tma_free(ptr noundef %0, ptr noundef %1) #3 {
  %3 = alloca ptr, align 8
  %4 = alloca ptr, align 8
  store ptr %0, ptr %3, align 8, !tbaa !64
  store ptr %1, ptr %4, align 8, !tbaa !45
  %5 = load ptr, ptr %3, align 8, !tbaa !64
  %6 = icmp ne ptr null, %5
  br i1 %6, label %7, label %13

7:                                                ; preds = %2
  %8 = load ptr, ptr %3, align 8, !tbaa !64
  %9 = getelementptr inbounds nuw %struct.pmix_tma, ptr %8, i32 0, i32 5
  %10 = load ptr, ptr %9, align 8, !tbaa !84
  %11 = load ptr, ptr %3, align 8, !tbaa !64
  %12 = load ptr, ptr %4, align 8, !tbaa !45
  call void %10(ptr noundef %11, ptr noundef %12)
  br label %15

13:                                               ; preds = %2
  %14 = load ptr, ptr %4, align 8, !tbaa !45
  call void @free(ptr noundef %14) #10
  br label %15

15:                                               ; preds = %13, %7
  ret void
}

; Function Attrs: inlinehint nounwind uwtable
define internal void @pmix_bfrops_base_tma_regattr_destruct(ptr noundef %0, ptr noundef %1) #3 {
  %3 = alloca ptr, align 8
  %4 = alloca ptr, align 8
  store ptr %0, ptr %3, align 8, !tbaa !119
  store ptr %1, ptr %4, align 8, !tbaa !64
  %5 = load ptr, ptr %3, align 8, !tbaa !119
  %6 = icmp ne ptr null, %5
  br i1 %6, label %7, label %32

7:                                                ; preds = %2
  %8 = load ptr, ptr %3, align 8, !tbaa !119
  %9 = getelementptr inbounds nuw %struct.pmix_regattr_t, ptr %8, i32 0, i32 0
  %10 = load ptr, ptr %9, align 8, !tbaa !210
  %11 = icmp ne ptr null, %10
  br i1 %11, label %12, label %19

12:                                               ; preds = %7
  %13 = load ptr, ptr %4, align 8, !tbaa !64
  %14 = load ptr, ptr %3, align 8, !tbaa !119
  %15 = getelementptr inbounds nuw %struct.pmix_regattr_t, ptr %14, i32 0, i32 0
  %16 = load ptr, ptr %15, align 8, !tbaa !210
  call void @pmix_tma_free(ptr noundef %13, ptr noundef %16)
  %17 = load ptr, ptr %3, align 8, !tbaa !119
  %18 = getelementptr inbounds nuw %struct.pmix_regattr_t, ptr %17, i32 0, i32 0
  store ptr null, ptr %18, align 8, !tbaa !210
  br label %19

19:                                               ; preds = %12, %7
  %20 = load ptr, ptr %3, align 8, !tbaa !119
  %21 = getelementptr inbounds nuw %struct.pmix_regattr_t, ptr %20, i32 0, i32 3
  %22 = load ptr, ptr %21, align 8, !tbaa !212
  %23 = icmp ne ptr null, %22
  br i1 %23, label %24, label %31

24:                                               ; preds = %19
  %25 = load ptr, ptr %3, align 8, !tbaa !119
  %26 = getelementptr inbounds nuw %struct.pmix_regattr_t, ptr %25, i32 0, i32 3
  %27 = load ptr, ptr %26, align 8, !tbaa !212
  %28 = load ptr, ptr %4, align 8, !tbaa !64
  call void @pmix_bfrops_base_tma_argv_free(ptr noundef %27, ptr noundef %28)
  %29 = load ptr, ptr %3, align 8, !tbaa !119
  %30 = getelementptr inbounds nuw %struct.pmix_regattr_t, ptr %29, i32 0, i32 3
  store ptr null, ptr %30, align 8, !tbaa !212
  br label %31

31:                                               ; preds = %24, %19
  br label %32

32:                                               ; preds = %31, %2
  ret void
}

; Function Attrs: inlinehint nounwind uwtable
define internal void @pmix_bfrops_base_tma_regattr_free(ptr noundef %0, i64 noundef %1, ptr noundef %2) #3 {
  %4 = alloca ptr, align 8
  %5 = alloca i64, align 8
  %6 = alloca ptr, align 8
  %7 = alloca i64, align 8
  store ptr %0, ptr %4, align 8, !tbaa !119
  store i64 %1, ptr %5, align 8, !tbaa !93
  store ptr %2, ptr %6, align 8, !tbaa !64
  %8 = load ptr, ptr %4, align 8, !tbaa !119
  %9 = icmp ne ptr null, %8
  br i1 %9, label %10, label %27

10:                                               ; preds = %3
  call void @llvm.lifetime.start.p0(i64 8, ptr %7) #10
  store i64 0, ptr %7, align 8, !tbaa !93
  br label %11

11:                                               ; preds = %21, %10
  %12 = load i64, ptr %7, align 8, !tbaa !93
  %13 = load i64, ptr %5, align 8, !tbaa !93
  %14 = icmp ult i64 %12, %13
  br i1 %14, label %16, label %15

15:                                               ; preds = %11
  call void @llvm.lifetime.end.p0(i64 8, ptr %7) #10
  br label %24

16:                                               ; preds = %11
  %17 = load ptr, ptr %4, align 8, !tbaa !119
  %18 = load i64, ptr %7, align 8, !tbaa !93
  %19 = getelementptr inbounds nuw %struct.pmix_regattr_t, ptr %17, i64 %18
  %20 = load ptr, ptr %6, align 8, !tbaa !64
  call void @pmix_bfrops_base_tma_regattr_destruct(ptr noundef %19, ptr noundef %20)
  br label %21

21:                                               ; preds = %16
  %22 = load i64, ptr %7, align 8, !tbaa !93
  %23 = add i64 %22, 1
  store i64 %23, ptr %7, align 8, !tbaa !93
  br label %11, !llvm.loop !121

24:                                               ; preds = %15
  %25 = load ptr, ptr %6, align 8, !tbaa !64
  %26 = load ptr, ptr %4, align 8, !tbaa !119
  call void @pmix_tma_free(ptr noundef %25, ptr noundef %26)
  br label %27

27:                                               ; preds = %24, %3
  ret void
}